; Function Attrs: nounwind uwtable
define internal void @tracker_destructor(ptr noundef %0) #0 {
  %2 = getelementptr inbounds nuw i8, ptr %0, i64 176
  %3 = tail call i32 @event_del(ptr noundef nonnull %2) #14
  %4 = getelementptr inbounds nuw i8, ptr %0, i64 152
  %5 = load ptr, ptr %4, align 8, !tbaa !36
  %.not = icmp eq ptr %5, null
  br i1 %.not, label %7, label %6

6:                                                ; preds = %1
  tail call void @free(ptr noundef nonnull %5) #14
  br label %7

7:                                                ; preds = %6, %1
  %8 = getelementptr inbounds nuw i8, ptr %0, i64 160
  %9 = load ptr, ptr %8, align 8, !tbaa !7
  %.not8 = icmp eq ptr %9, null
  br i1 %.not8, label %11, label %10

10:                                               ; preds = %7
  tail call void @event_base_free(ptr noundef nonnull %9) #14
  br label %11

11:                                               ; preds = %10, %7
  %12 = getelementptr inbounds nuw i8, ptr %0, i64 304
  %13 = load i8, ptr %12, align 8, !tbaa !43, !range !61, !noundef !62
  %14 = trunc nuw i8 %13 to i1
  br i1 %14, label %15, label %pmix_obj_run_destructors.exit

15:                                               ; preds = %11
  %16 = getelementptr inbounds nuw i8, ptr %0, i64 312
  %17 = getelementptr inbounds nuw i8, ptr %0, i64 352
  %18 = load ptr, ptr %17, align 8, !tbaa !30
  %19 = getelementptr inbounds nuw i8, ptr %18, i64 48
  %20 = load ptr, ptr %19, align 8, !tbaa !40
  %21 = load ptr, ptr %20, align 8, !tbaa !3
  %.not6.i = icmp eq ptr %21, null
  br i1 %.not6.i, label %pmix_obj_run_destructors.exit, label %.lr.ph.i

.lr.ph.i:                                         ; preds = %15, %.lr.ph.i
  %22 = phi ptr [ %24, %.lr.ph.i ], [ %21, %15 ]
  %.07.i = phi ptr [ %23, %.lr.ph.i ], [ %20, %15 ]
  tail call void %22(ptr noundef nonnull %16) #14
  %23 = getelementptr inbounds nuw i8, ptr %.07.i, i64 8
  %24 = load ptr, ptr %23, align 8, !tbaa !3
  %.not.i = icmp eq ptr %24, null
  br i1 %.not.i, label %pmix_obj_run_destructors.exit, label %.lr.ph.i, !llvm.loop !41

pmix_obj_run_destructors.exit:                    ; preds = %.lr.ph.i, %15, %11
  ret void
}